(dp0
S'GTAC'
p1
I177
sS'CGAG'
p2
I98
sS'GTAA'
p3
I176
sS'CGAA'
p4
I96
sS'AAAT'
p5
I3
sS'CGAC'
p6
I97
sS'GTAT'
p7
I179
sS'AGTG'
p8
I46
sS'AGTA'
p9
I44
sS'AGTC'
p10
I45
sS'AAAA'
p11
I0
sS'CGAT'
p12
I99
sS'AAAC'
p13
I1
sS'AAAG'
p14
I2
sS'GGTT'
p15
I175
sS'AGTT'
p16
I47
sS'TAGC'
p17
I201
sS'GTAG'
p18
I178
sS'GAAT'
p19
I131
sS'TTAG'
p20
I242
sS'TTAC'
p21
I241
sS'TTAA'
p22
I240
sS'TATT'
p23
I207
sS'GAAC'
p24
I129
sS'GAAA'
p25
I128
sS'GAAG'
p26
I130
sS'TTCA'
p27
I244
sS'GGAC'
p28
I161
sS'GCTG'
p29
I158
sS'GCTC'
p30
I157
sS'GCTA'
p31
I156
sS'ATAA'
p32
I48
sS'ATAC'
p33
I49
sS'CCAT'
p34
I83
sS'ATAG'
p35
I50
sS'GCTT'
p36
I159
sS'CCAA'
p37
I80
sS'CCAC'
p38
I81
sS'TGTG'
p39
I238
sS'ATAT'
p40
I51
sS'TTGC'
p41
I249
sS'CCAG'
p42
I82
sS'TAAG'
p43
I194
sS'TAAC'
p44
I193
sS'TAAA'
p45
I192
sS'TGTC'
p46
I237
sS'TGTA'
p47
I236
sS'TCTT'
p48
I223
sS'ACTT'
p49
I31
sS'TAAT'
p50
I195
sS'GTGG'
p51
I186
sS'TCTG'
p52
I222
sS'ACTA'
p53
I28
sS'ACTC'
p54
I29
sS'TCTC'
p55
I221
sS'TATG'
p56
I206
sS'TCTA'
p57
I220
sS'ACTG'
p58
I30
sS'AAGG'
p59
I10
sS'CTAG'
p60
I114
sS'CGGA'
p61
I104
sS'AAGC'
p62
I9
sS'ACGT'
p63
I27
sS'AAGA'
p64
I8
sS'ATGC'
p65
I57
sS'CTCT'
p66
I119
sS'GTGC'
p67
I185
sS'GGCT'
p68
I167
sS'ACGA'
p69
I24
sS'ACGC'
p70
I25
sS'AAGT'
p71
I11
sS'ACGG'
p72
I26
sS'CGGT'
p73
I107
sS'GGCC'
p74
I165
sS'GGCA'
p75
I164
sS'GGCG'
p76
I166
sS'TTCT'
p77
I247
sS'AGGG'
p78
I42
sS'AGGA'
p79
I40
sS'AGGC'
p80
I41
sS'TCAA'
p81
I208
sS'GATT'
p82
I143
sS'TATA'
p83
I204
sS'TCAC'
p84
I209
sS'GTCG'
p85
I182
sS'GACT'
p86
I135
sS'AGGT'
p87
I43
sS'TTCG'
p88
I246
sS'CTGG'
p89
I122
sS'TGCG'
p90
I230
sS'TTCC'
p91
I245
sS'CTCA'
p92
I116
sS'GACA'
p93
I132
sS'GACC'
p94
I133
sS'GATG'
p95
I142
sS'GATA'
p96
I140
sS'GACG'
p97
I134
sS'CTGA'
p98
I120
sS'GCCG'
p99
I150
sS'GGAA'
p100
I160
sS'ATCT'
p101
I55
sS'GCCC'
p102
I149
sS'GCCA'
p103
I148
sS'CCGG'
p104
I90
sS'TACT'
p105
I199
sS'TCAG'
p106
I210
sS'CCGC'
p107
I89
sS'CAGT'
p108
I75
sS'CCGA'
p109
I88
sS'ATCG'
p110
I54
sS'GCCT'
p111
I151
sS'ATCC'
p112
I53
sS'ATCA'
p113
I52
sS'CAGA'
p114
I72
sS'CCTC'
p115
I93
sS'CAGC'
p116
I73
sS'CCGT'
p117
I91
sS'CCTG'
p118
I94
sS'CAGG'
p119
I74
sS'TGGG'
p120
I234
sS'CTCC'
p121
I117
sS'TGGC'
p122
I233
sS'TGGA'
p123
I232
sS'TCGC'
p124
I217
sS'TCGA'
p125
I216
sS'CACG'
p126
I70
sS'TGGT'
p127
I235
sS'TAGG'
p128
I202
sS'GTGA'
p129
I184
sS'CCCG'
p130
I86
sS'CTCG'
p131
I118
sS'GATC'
p132
I141
sS'TCGT'
p133
I219
sS'TAGA'
p134
I200
sS'ACAG'
p135
I18
sS'CGGC'
p136
I105
sS'ACAC'
p137
I17
sS'ATGT'
p138
I59
sS'ACAA'
p139
I16
sS'GGTC'
p140
I173
sS'ACAT'
p141
I19
sS'CGGG'
p142
I106
sS'CTAC'
p143
I113
sS'AGAC'
p144
I33
sS'AGAA'
p145
I32
sS'ATTT'
p146
I63
sS'AGAG'
p147
I34
sS'GGAG'
p148
I162
sS'CTAA'
p149
I112
sS'ATTG'
p150
I62
sS'ATTC'
p151
I61
sS'GGAT'
p152
I163
sS'ATTA'
p153
I60
sS'AGAT'
p154
I35
sS'TACG'
p155
I198
sS'ACCG'
p156
I22
sS'TGAT'
p157
I227
sS'TTTA'
p158
I252
sS'TTTC'
p159
I253
sS'TTTG'
p160
I254
sS'CAAG'
p161
I66
sS'AACG'
p162
I6
sS'GCAG'
p163
I146
sS'CAAC'
p164
I65
sS'CAAA'
p165
I64
sS'TGAG'
p166
I226
sS'TTTT'
p167
I255
sS'CTTC'
p168
I125
sS'TGAC'
p169
I225
sS'GCAT'
p170
I147
sS'CAAT'
p171
I67
sS'CTGT'
p172
I123
sS'GTCT'
p173
I183
sS'TTAT'
p174
I243
sS'TCAT'
p175
I211
sS'AATT'
p176
I15
sS'CGTT'
p177
I111
sS'TAGT'
p178
I203
sS'CTAT'
p179
I115
sS'TATC'
p180
I205
sS'AATC'
p181
I13
sS'AATA'
p182
I12
sS'AATG'
p183
I14
sS'CCTA'
p184
I92
sS'CTGC'
p185
I121
sS'CGTG'
p186
I110
sS'CGTC'
p187
I109
sS'CTTG'
p188
I126
sS'CGTA'
p189
I108
sS'GTTA'
p190
I188
sS'GTTC'
p191
I189
sS'GGGT'
p192
I171
sS'GTCA'
p193
I180
sS'GTTG'
p194
I190
sS'GTCC'
p195
I181
sS'AACC'
p196
I5
sS'AACA'
p197
I4
sS'ACCA'
p198
I20
sS'ACCC'
p199
I21
sS'TCGG'
p200
I218
sS'GGGG'
p201
I170
sS'GGGC'
p202
I169
sS'GTTT'
p203
I191
sS'GGGA'
p204
I168
sS'CTTT'
p205
I127
sS'ACCT'
p206
I23
sS'TGTT'
p207
I239
sS'AACT'
p208
I7
sS'GAGT'
p209
I139
sS'GGTA'
p210
I172
sS'GGTG'
p211
I174
sS'AGCA'
p212
I36
sS'GTGT'
p213
I187
sS'AGCC'
p214
I37
sS'TTGT'
p215
I251
sS'AGCG'
p216
I38
sS'GAGG'
p217
I138
sS'GAGA'
p218
I136
sS'GAGC'
p219
I137
sS'TTGA'
p220
I248
sS'CTTA'
p221
I124
sS'AGCT'
p222
I39
sS'TTGG'
p223
I250
sS'CACT'
p224
I71
sS'ATGA'
p225
I56
sS'ATGG'
p226
I58
sS'TGCT'
p227
I231
sS'CCCT'
p228
I87
sS'GCGC'
p229
I153
sS'GCAA'
p230
I144
sS'GCGA'
p231
I152
sS'GCGG'
p232
I154
sS'TGAA'
p233
I224
sS'CCCC'
p234
I85
sS'TGCC'
p235
I229
sS'CCCA'
p236
I84
sS'TGCA'
p237
I228
sS'CACA'
p238
I68
sS'GCAC'
p239
I145
sS'CACC'
p240
I69
sS'TACA'
p241
I196
sS'TACC'
p242
I197
sS'GCGT'
p243
I155
sS'CATA'
p244
I76
sS'CATC'
p245
I77
sS'CATG'
p246
I78
sS'TCCT'
p247
I215
sS'CGCT'
p248
I103
sS'CCTT'
p249
I95
sS'CATT'
p250
I79
sS'CGCG'
p251
I102
sS'TCCG'
p252
I214
sS'CGCC'
p253
I101
sS'TCCC'
p254
I213
sS'CGCA'
p255
I100
sS'TCCA'
p256
I212
s.