(dp0
S'ACC'
p1
I5
sS'ATG'
p2
I14
sS'AAG'
p3
I2
sS'AAA'
p4
I0
sS'ATC'
p5
I13
sS'AAC'
p6
I1
sS'ATA'
p7
I12
sS'AGG'
p8
I10
sS'CCT'
p9
I23
sS'CTC'
p10
I29
sS'AGC'
p11
I9
sS'ACA'
p12
I4
sS'AGA'
p13
I8
sS'CAT'
p14
I19
sS'AAT'
p15
I3
sS'ATT'
p16
I15
sS'CTG'
p17
I30
sS'CTA'
p18
I28
sS'ACT'
p19
I7
sS'CAC'
p20
I17
sS'ACG'
p21
I6
sS'CAA'
p22
I16
sS'AGT'
p23
I11
sS'CCA'
p24
I20
sS'CCG'
p25
I22
sS'CCC'
p26
I21
sS'TAT'
p27
I51
sS'GGT'
p28
I43
sS'TGT'
p29
I59
sS'CGA'
p30
I24
sS'CAG'
p31
I18
sS'CGC'
p32
I25
sS'GAT'
p33
I35
sS'CGG'
p34
I26
sS'CTT'
p35
I31
sS'TGC'
p36
I57
sS'GGG'
p37
I42
sS'TAG'
p38
I50
sS'GGA'
p39
I40
sS'TAA'
p40
I48
sS'GGC'
p41
I41
sS'TAC'
p42
I49
sS'GAG'
p43
I34
sS'TCG'
p44
I54
sS'TTA'
p45
I60
sS'TTT'
p46
I63
sS'GAC'
p47
I33
sS'CGT'
p48
I27
sS'GAA'
p49
I32
sS'TCA'
p50
I52
sS'GCA'
p51
I36
sS'GTA'
p52
I44
sS'GCC'
p53
I37
sS'GTC'
p54
I45
sS'GCG'
p55
I38
sS'GTG'
p56
I46
sS'TTC'
p57
I61
sS'GTT'
p58
I47
sS'GCT'
p59
I39
sS'TGA'
p60
I56
sS'TTG'
p61
I62
sS'TCC'
p62
I53
sS'TGG'
p63
I58
sS'TCT'
p64
I55
s.