(dp0
S'0130'
p1
I28
sS'0131'
p2
I29
sS'0132'
p3
I30
sS'0133'
p4
I31
sS'0233'
p5
I47
sS'0232'
p6
I46
sS'0231'
p7
I45
sS'0230'
p8
I44
sS'0031'
p9
I13
sS'0030'
p10
I12
sS'0033'
p11
I15
sS'0032'
p12
I14
sS'3320'
p13
I248
sS'3321'
p14
I249
sS'3322'
p15
I250
sS'3323'
p16
I251
sS'3102'
p17
I210
sS'1300'
p18
I112
sS'2013'
p19
I135
sS'1301'
p20
I113
sS'2323'
p21
I187
sS'2322'
p22
I186
sS'2321'
p23
I185
sS'2320'
p24
I184
sS'1302'
p25
I114
sS'3122'
p26
I218
sS'3123'
p27
I219
sS'3120'
p28
I216
sS'1303'
p29
I115
sS'1331'
p30
I125
sS'0303'
p31
I51
sS'0302'
p32
I50
sS'0301'
p33
I49
sS'0300'
p34
I48
sS'2331'
p35
I189
sS'0123'
p36
I27
sS'0122'
p37
I26
sS'0121'
p38
I25
sS'0120'
p39
I24
sS'3333'
p40
I255
sS'3332'
p41
I254
sS'3331'
p42
I253
sS'2210'
p43
I164
sS'3131'
p44
I221
sS'3130'
p45
I220
sS'3133'
p46
I223
sS'2021'
p47
I137
sS'3203'
p48
I227
sS'3202'
p49
I226
sS'3201'
p50
I225
sS'3200'
p51
I224
sS'2312'
p52
I182
sS'2313'
p53
I183
sS'2310'
p54
I180
sS'2311'
p55
I181
sS'2022'
p56
I138
sS'0332'
p57
I62
sS'0333'
p58
I63
sS'0330'
p59
I60
sS'0331'
p60
I61
sS'0112'
p61
I22
sS'0113'
p62
I23
sS'0110'
p63
I20
sS'0111'
p64
I21
sS'1120'
p65
I88
sS'1121'
p66
I89
sS'1122'
p67
I90
sS'1123'
p68
I91
sS'3031'
p69
I205
sS'2023'
p70
I139
sS'3032'
p71
I206
sS'3033'
p72
I207
sS'3302'
p73
I242
sS'3303'
p74
I243
sS'3300'
p75
I240
sS'3301'
p76
I241
sS'0321'
p77
I57
sS'0320'
p78
I56
sS'0323'
p79
I59
sS'0322'
p80
I58
sS'2301'
p81
I177
sS'2300'
p82
I176
sS'2303'
p83
I179
sS'2302'
p84
I178
sS'3023'
p85
I203
sS'3022'
p86
I202
sS'3021'
p87
I201
sS'3020'
p88
I200
sS'0202'
p89
I34
sS'0203'
p90
I35
sS'0200'
p91
I32
sS'0201'
p92
I33
sS'2020'
p93
I136
sS'1010'
p94
I68
sS'1011'
p95
I69
sS'1012'
p96
I70
sS'1013'
p97
I71
sS'1230'
p98
I108
sS'1231'
p99
I109
sS'1232'
p100
I110
sS'1233'
p101
I111
sS'1133'
p102
I95
sS'1132'
p103
I94
sS'1131'
p104
I93
sS'1130'
p105
I92
sS'0101'
p106
I17
sS'0100'
p107
I16
sS'0103'
p108
I19
sS'0102'
p109
I18
sS'1330'
p110
I124
sS'1333'
p111
I127
sS'3311'
p112
I245
sS'3310'
p113
I244
sS'3313'
p114
I247
sS'1332'
p115
I126
sS'3030'
p116
I204
sS'2100'
p117
I144
sS'3012'
p118
I198
sS'3013'
p119
I199
sS'3010'
p120
I196
sS'3011'
p121
I197
sS'0211'
p122
I37
sS'0210'
p123
I36
sS'0213'
p124
I39
sS'0212'
p125
I38
sS'3220'
p126
I232
sS'1003'
p127
I67
sS'1002'
p128
I66
sS'1001'
p129
I65
sS'1000'
p130
I64
sS'1322'
p131
I122
sS'3330'
p132
I252
sS'3121'
p133
I217
sS'1223'
p134
I107
sS'1222'
p135
I106
sS'1221'
p136
I105
sS'1220'
p137
I104
sS'1320'
p138
I120
sS'1321'
p139
I121
sS'3001'
p140
I193
sS'3000'
p141
I192
sS'3003'
p142
I195
sS'3002'
p143
I194
sS'2200'
p144
I160
sS'2201'
p145
I161
sS'2202'
p146
I162
sS'2203'
p147
I163
sS'3210'
p148
I228
sS'3211'
p149
I229
sS'3212'
p150
I230
sS'3213'
p151
I231
sS'3101'
p152
I209
sS'3132'
p153
I222
sS'3103'
p154
I211
sS'1032'
p155
I78
sS'1033'
p156
I79
sS'1030'
p157
I76
sS'1031'
p158
I77
sS'1212'
p159
I102
sS'1213'
p160
I103
sS'1210'
p161
I100
sS'1211'
p162
I101
sS'0000'
p163
I0
sS'0001'
p164
I1
sS'0002'
p165
I2
sS'0003'
p166
I3
sS'3312'
p167
I246
sS'2332'
p168
I190
sS'2110'
p169
I148
sS'2333'
p170
I191
sS'2111'
p171
I149
sS'2112'
p172
I150
sS'2213'
p173
I167
sS'2212'
p174
I166
sS'2211'
p175
I165
sS'2113'
p176
I151
sS'1021'
p177
I73
sS'1020'
p178
I72
sS'1023'
p179
I75
sS'1022'
p180
I74
sS'2011'
p181
I133
sS'2010'
p182
I132
sS'3100'
p183
I208
sS'1102'
p184
I82
sS'1103'
p185
I83
sS'1100'
p186
I80
sS'1101'
p187
I81
sS'2103'
p188
I147
sS'2102'
p189
I146
sS'2101'
p190
I145
sS'2012'
p191
I134
sS'0013'
p192
I7
sS'0012'
p193
I6
sS'0011'
p194
I5
sS'0010'
p195
I4
sS'3221'
p196
I233
sS'1201'
p197
I97
sS'1200'
p198
I96
sS'1203'
p199
I99
sS'1202'
p200
I98
sS'3223'
p201
I235
sS'1313'
p202
I119
sS'3222'
p203
I234
sS'1312'
p204
I118
sS'3232'
p205
I238
sS'3233'
p206
I239
sS'3230'
p207
I236
sS'3231'
p208
I237
sS'2132'
p209
I158
sS'1311'
p210
I117
sS'2130'
p211
I156
sS'2131'
p212
I157
sS'2330'
p213
I188
sS'1310'
p214
I116
sS'2222'
p215
I170
sS'2223'
p216
I171
sS'2220'
p217
I168
sS'2221'
p218
I169
sS'1111'
p219
I85
sS'1110'
p220
I84
sS'1113'
p221
I87
sS'1112'
p222
I86
sS'2033'
p223
I143
sS'2032'
p224
I142
sS'2031'
p225
I141
sS'2030'
p226
I140
sS'0022'
p227
I10
sS'0023'
p228
I11
sS'0020'
p229
I8
sS'0021'
p230
I9
sS'0220'
p231
I40
sS'0221'
p232
I41
sS'0222'
p233
I42
sS'0223'
p234
I43
sS'1323'
p235
I123
sS'2133'
p236
I159
sS'2121'
p237
I153
sS'2120'
p238
I152
sS'2123'
p239
I155
sS'2122'
p240
I154
sS'2231'
p241
I173
sS'2230'
p242
I172
sS'2233'
p243
I175
sS'2232'
p244
I174
sS'3113'
p245
I215
sS'3112'
p246
I214
sS'3111'
p247
I213
sS'3110'
p248
I212
sS'2002'
p249
I130
sS'2003'
p250
I131
sS'2000'
p251
I128
sS'2001'
p252
I129
sS'0310'
p253
I52
sS'0311'
p254
I53
sS'0312'
p255
I54
sS'0313'
p256
I55
s.